; Function Attrs: nounwind uwtable
define dso_local void @addReplyNullArray(ptr noundef %0) local_unnamed_addr #0 {
  %2 = getelementptr inbounds nuw i8, ptr %0, i64 28
  %3 = load i32, ptr %2, align 4, !tbaa !74
  %4 = icmp eq i32 %3, 2
  br i1 %4, label %5, label %6

5:                                                ; preds = %1
  tail call void @addReplyProto(ptr noundef nonnull %0, ptr noundef nonnull @.str.33, i64 noundef 5)
  br label %7

6:                                                ; preds = %1
  tail call void @addReplyProto(ptr noundef nonnull %0, ptr noundef nonnull @.str.30, i64 noundef 3)
  br label %7

7:                                                ; preds = %6, %5
  ret void
}